; Function Attrs: mustprogress nofree norecurse nosync nounwind null_pointer_is_valid sspstrong willreturn memory(read, inaccessiblemem: none) uwtable
define noundef zeroext i1 @_ZNK9ProtoNode7isChildEv(ptr noundef readonly align 8 captures(none) dereferenceable_or_null(40) %0) local_unnamed_addr #2 align 2 {
  %2 = load ptr, ptr %0, align 8
  %.not = icmp eq ptr %2, null
  br i1 %.not, label %7, label %3

3:                                                ; preds = %1
  %4 = getelementptr inbounds nuw i8, ptr %2, i64 24
  %5 = load ptr, ptr %4, align 8
  %6 = icmp ne ptr %5, null
  br label %7

7:                                                ; preds = %3, %1
  %8 = phi i1 [ false, %1 ], [ %6, %3 ]
  ret i1 %8
}